target datalayout = "e-m:e-p270:32:32-p271:32:32-p272:64:64-i64:64-i128:128-f80:128-n8:16:32:64-S128"
target triple = "x86_64-unknown-linux-gnu"

%"class.std::__cxx11::basic_string" = type { %"struct.std::__cxx11::basic_string<char>::_Alloc_hider", i64, %union.anon }
%"struct.std::__cxx11::basic_string<char>::_Alloc_hider" = type { ptr }
%union.anon = type { i64, [8 x i8] }

; Function Attrs: mustprogress uwtable
define noundef i32 @_ZN3zmq17socks_connecter_t13parse_addressERKNSt7__cxx1112basic_stringIcSt11char_traitsIcESaIcEEERS6_Rt(ptr noundef nonnull align 8 dereferenceable(32) %address_, ptr noundef nonnull align 8 dereferenceable(32) %hostname_, ptr noundef nonnull align 2 dereferenceable(2) %port_) #0 align 2 {
entry:
  %retval = alloca i32, align 4
  %address_.addr = alloca ptr, align 8
  %hostname_.addr = alloca ptr, align 8
  %port_.addr = alloca ptr, align 8
  %idx = alloca i64, align 8
  %ref.tmp = alloca %"class.std::__cxx11::basic_string", align 8
  %ref.tmp11 = alloca %"class.std::__cxx11::basic_string", align 8
  %port_str = alloca %"class.std::__cxx11::basic_string", align 8
  %cleanup.dest.slot = alloca i32, align 4
  store ptr %address_, ptr %address_.addr, align 8
  store ptr %hostname_, ptr %hostname_.addr, align 8
  store ptr %port_, ptr %port_.addr, align 8
  %0 = load ptr, ptr %address_.addr, align 8
  %call = call noundef i64 @_ZNKSt7__cxx1112basic_stringIcSt11char_traitsIcESaIcEE5rfindEcm(ptr noundef nonnull align 8 dereferenceable(32) %0, i8 noundef signext 58, i64 noundef -1) #10
  store i64 %call, ptr %idx, align 8
  %1 = load i64, ptr %idx, align 8
  %cmp = icmp eq i64 %1, -1
  br i1 %cmp, label %if.then, label %if.end

if.then:                                          ; preds = %entry
  %call1 = call ptr @__errno_location() #12
  store i32 22, ptr %call1, align 4
  store i32 -1, ptr %retval, align 4
  br label %return

if.end:                                           ; preds = %entry
  %2 = load i64, ptr %idx, align 8
  %cmp2 = icmp ult i64 %2, 2
  br i1 %cmp2, label %if.then9, label %lor.lhs.false

lor.lhs.false:                                    ; preds = %if.end
  %3 = load ptr, ptr %address_.addr, align 8
  %call3 = call noundef nonnull align 1 dereferenceable(1) ptr @_ZNKSt7__cxx1112basic_stringIcSt11char_traitsIcESaIcEEixEm(ptr noundef nonnull align 8 dereferenceable(32) %3, i64 noundef 0) #10
  %4 = load i8, ptr %call3, align 1
  %conv = sext i8 %4 to i32
  %cmp4 = icmp ne i32 %conv, 91
  br i1 %cmp4, label %if.then9, label %lor.lhs.false5

lor.lhs.false5:                                   ; preds = %lor.lhs.false
  %5 = load ptr, ptr %address_.addr, align 8
  %6 = load i64, ptr %idx, align 8
  %sub = sub i64 %6, 1
  %call6 = call noundef nonnull align 1 dereferenceable(1) ptr @_ZNKSt7__cxx1112basic_stringIcSt11char_traitsIcESaIcEEixEm(ptr noundef nonnull align 8 dereferenceable(32) %5, i64 noundef %sub) #10
  %7 = load i8, ptr %call6, align 1
  %conv7 = sext i8 %7 to i32
  %cmp8 = icmp ne i32 %conv7, 93
  br i1 %cmp8, label %if.then9, label %if.else

if.then9:                                         ; preds = %lor.lhs.false5, %lor.lhs.false, %if.end
  %8 = load ptr, ptr %address_.addr, align 8
  %9 = load i64, ptr %idx, align 8
  call void @_ZNKSt7__cxx1112basic_stringIcSt11char_traitsIcESaIcEE6substrEmm(ptr sret(%"class.std::__cxx11::basic_string") align 8 %ref.tmp, ptr noundef nonnull align 8 dereferenceable(32) %8, i64 noundef 0, i64 noundef %9)
  %10 = load ptr, ptr %hostname_.addr, align 8
  %call10 = call noundef nonnull align 8 dereferenceable(32) ptr @_ZNSt7__cxx1112basic_stringIcSt11char_traitsIcESaIcEEaSEOS4_(ptr noundef nonnull align 8 dereferenceable(32) %10, ptr noundef nonnull align 8 dereferenceable(32) %ref.tmp) #10
  call void @_ZNSt7__cxx1112basic_stringIcSt11char_traitsIcESaIcEED1Ev(ptr noundef nonnull align 8 dereferenceable(32) %ref.tmp) #10
  br label %if.end14

if.else:                                          ; preds = %lor.lhs.false5
  %11 = load ptr, ptr %address_.addr, align 8
  %12 = load i64, ptr %idx, align 8
  %sub12 = sub i64 %12, 2
  call void @_ZNKSt7__cxx1112basic_stringIcSt11char_traitsIcESaIcEE6substrEmm(ptr sret(%"class.std::__cxx11::basic_string") align 8 %ref.tmp11, ptr noundef nonnull align 8 dereferenceable(32) %11, i64 noundef 1, i64 noundef %sub12)
  %13 = load ptr, ptr %hostname_.addr, align 8
  %call13 = call noundef nonnull align 8 dereferenceable(32) ptr @_ZNSt7__cxx1112basic_stringIcSt11char_traitsIcESaIcEEaSEOS4_(ptr noundef nonnull align 8 dereferenceable(32) %13, ptr noundef nonnull align 8 dereferenceable(32) %ref.tmp11) #10
  call void @_ZNSt7__cxx1112basic_stringIcSt11char_traitsIcESaIcEED1Ev(ptr noundef nonnull align 8 dereferenceable(32) %ref.tmp11) #10
  br label %if.end14

if.end14:                                         ; preds = %if.else, %if.then9
  %14 = load ptr, ptr %address_.addr, align 8
  %15 = load i64, ptr %idx, align 8
  %add = add i64 %15, 1
  call void @_ZNKSt7__cxx1112basic_stringIcSt11char_traitsIcESaIcEE6substrEmm(ptr sret(%"class.std::__cxx11::basic_string") align 8 %port_str, ptr noundef nonnull align 8 dereferenceable(32) %14, i64 noundef %add, i64 noundef -1)
  %call15 = call noundef ptr @_ZNKSt7__cxx1112basic_stringIcSt11char_traitsIcESaIcEE5c_strEv(ptr noundef nonnull align 8 dereferenceable(32) %port_str) #10
  %call16 = call i32 @atoi(ptr noundef %call15) #13
  %conv17 = trunc i32 %call16 to i16
  %16 = load ptr, ptr %port_.addr, align 8
  store i16 %conv17, ptr %16, align 2
  %17 = load ptr, ptr %port_.addr, align 8
  %18 = load i16, ptr %17, align 2
  %conv18 = zext i16 %18 to i32
  %cmp19 = icmp eq i32 %conv18, 0
  br i1 %cmp19, label %if.then20, label %if.end22

if.then20:                                        ; preds = %if.end14
  %call21 = call ptr @__errno_location() #12
  store i32 22, ptr %call21, align 4
  store i32 -1, ptr %retval, align 4
  store i32 1, ptr %cleanup.dest.slot, align 4
  br label %cleanup

if.end22:                                         ; preds = %if.end14
  store i32 0, ptr %retval, align 4
  store i32 1, ptr %cleanup.dest.slot, align 4
  br label %cleanup

cleanup:                                          ; preds = %if.end22, %if.then20
  call void @_ZNSt7__cxx1112basic_stringIcSt11char_traitsIcESaIcEED1Ev(ptr noundef nonnull align 8 dereferenceable(32) %port_str) #10
  br label %return

return:                                           ; preds = %cleanup, %if.then
  %19 = load i32, ptr %retval, align 4
  ret i32 %19
}