; Function Attrs: mustprogress uwtable
define noundef i32 @_ZN3zmq17socks_connecter_t13parse_addressERKNSt7__cxx1112basic_stringIcSt11char_traitsIcESaIcEEERS6_Rt(ptr noundef nonnull align 8 dereferenceable(32) %address_, ptr noundef nonnull align 8 dereferenceable(32) %hostname_, ptr nocapture noundef nonnull writeonly align 2 dereferenceable(2) %port_) local_unnamed_addr #0 align 2 {
entry:
  %ref.tmp = alloca %"class.std::__cxx11::basic_string", align 8
  %ref.tmp11 = alloca %"class.std::__cxx11::basic_string", align 8
  %port_str = alloca %"class.std::__cxx11::basic_string", align 8
  %call = tail call noundef i64 @_ZNKSt7__cxx1112basic_stringIcSt11char_traitsIcESaIcEE5rfindEcm(ptr noundef nonnull align 8 dereferenceable(32) %address_, i8 noundef signext 58, i64 noundef -1) #13
  %cmp = icmp eq i64 %call, -1
  br i1 %cmp, label %if.then, label %if.end

if.then:                                          ; preds = %entry
  %call1 = tail call ptr @__errno_location() #16
  store i32 22, ptr %call1, align 4
  br label %return

if.end:                                           ; preds = %entry
  %cmp2 = icmp ult i64 %call, 2
  br i1 %cmp2, label %if.then9, label %lor.lhs.false

lor.lhs.false:                                    ; preds = %if.end
  %call3 = tail call noundef nonnull align 1 dereferenceable(1) ptr @_ZNKSt7__cxx1112basic_stringIcSt11char_traitsIcESaIcEEixEm(ptr noundef nonnull align 8 dereferenceable(32) %address_, i64 noundef 0) #13
  %0 = load i8, ptr %call3, align 1
  %cmp4.not = icmp eq i8 %0, 91
  br i1 %cmp4.not, label %lor.lhs.false5, label %if.then9

lor.lhs.false5:                                   ; preds = %lor.lhs.false
  %sub = add i64 %call, -1
  %call6 = tail call noundef nonnull align 1 dereferenceable(1) ptr @_ZNKSt7__cxx1112basic_stringIcSt11char_traitsIcESaIcEEixEm(ptr noundef nonnull align 8 dereferenceable(32) %address_, i64 noundef %sub) #13
  %1 = load i8, ptr %call6, align 1
  %cmp8.not = icmp eq i8 %1, 93
  br i1 %cmp8.not, label %if.else, label %if.then9

if.then9:                                         ; preds = %lor.lhs.false5, %lor.lhs.false, %if.end
  call void @_ZNKSt7__cxx1112basic_stringIcSt11char_traitsIcESaIcEE6substrEmm(ptr nonnull sret(%"class.std::__cxx11::basic_string") align 8 %ref.tmp, ptr noundef nonnull align 8 dereferenceable(32) %address_, i64 noundef 0, i64 noundef %call)
  br label %if.end14

if.else:                                          ; preds = %lor.lhs.false5
  %sub12 = add i64 %call, -2
  call void @_ZNKSt7__cxx1112basic_stringIcSt11char_traitsIcESaIcEE6substrEmm(ptr nonnull sret(%"class.std::__cxx11::basic_string") align 8 %ref.tmp11, ptr noundef nonnull align 8 dereferenceable(32) %address_, i64 noundef 1, i64 noundef %sub12)
  br label %if.end14

if.end14:                                         ; preds = %if.else, %if.then9
  %ref.tmp11.sink13 = phi ptr [ %ref.tmp11, %if.else ], [ %ref.tmp, %if.then9 ]
  %call13 = call noundef nonnull align 8 dereferenceable(32) ptr @_ZNSt7__cxx1112basic_stringIcSt11char_traitsIcESaIcEEaSEOS4_(ptr noundef nonnull align 8 dereferenceable(32) %hostname_, ptr noundef nonnull align 8 dereferenceable(32) %ref.tmp11.sink13) #13
  call void @_ZNSt7__cxx1112basic_stringIcSt11char_traitsIcESaIcEED1Ev(ptr noundef nonnull align 8 dereferenceable(32) %ref.tmp11.sink13) #13
  %add = add nuw i64 %call, 1
  call void @_ZNKSt7__cxx1112basic_stringIcSt11char_traitsIcESaIcEE6substrEmm(ptr nonnull sret(%"class.std::__cxx11::basic_string") align 8 %port_str, ptr noundef nonnull align 8 dereferenceable(32) %address_, i64 noundef %add, i64 noundef -1)
  %call15 = call noundef ptr @_ZNKSt7__cxx1112basic_stringIcSt11char_traitsIcESaIcEE5c_strEv(ptr noundef nonnull align 8 dereferenceable(32) %port_str) #13
  %call16 = call i32 @atoi(ptr nocapture noundef %call15) #17
  %conv17 = trunc i32 %call16 to i16
  store i16 %conv17, ptr %port_, align 2
  %conv18 = and i32 %call16, 65535
  %cmp19 = icmp eq i32 %conv18, 0
  br i1 %cmp19, label %if.then20, label %cleanup

if.then20:                                        ; preds = %if.end14
  %call21 = tail call ptr @__errno_location() #16
  store i32 22, ptr %call21, align 4
  br label %cleanup

cleanup:                                          ; preds = %if.end14, %if.then20
  %retval.0 = phi i32 [ -1, %if.then20 ], [ 0, %if.end14 ]
  call void @_ZNSt7__cxx1112basic_stringIcSt11char_traitsIcESaIcEED1Ev(ptr noundef nonnull align 8 dereferenceable(32) %port_str) #13
  br label %return

return:                                           ; preds = %cleanup, %if.then
  %retval.1 = phi i32 [ -1, %if.then ], [ %retval.0, %cleanup ]
  ret i32 %retval.1
}